; Function Attrs: nounwind uwtable
define i32 @php_random_range32(ptr nocapture readonly %0, ptr %1, i32 noundef %2) local_unnamed_addr #0 {
  %4 = getelementptr inbounds i8, ptr %0, i64 8
  br label %5

5:                                                ; preds = %9, %3
  %.030 = phi i64 [ 0, %3 ], [ %16, %9 ]
  %.029 = phi i32 [ 0, %3 ], [ %14, %9 ]
  %6 = load ptr, ptr %4, align 8
  %7 = tail call { i64, i64 } %6(ptr noundef %1) #13
  %8 = load ptr, ptr getelementptr inbounds (%struct._zend_executor_globals, ptr @executor_globals, i64 0, i32 50), align 8
  %.not = icmp eq ptr %8, null
  br i1 %.not, label %9, label %.loopexit

9:                                                ; preds = %5
  %10 = extractvalue { i64, i64 } %7, 0
  %11 = trunc i64 %10 to i32
  %.030.tr = trunc i64 %.030 to i32
  %12 = shl nuw nsw i32 %.030.tr, 3
  %13 = shl i32 %11, %12
  %14 = or i32 %13, %.029
  %15 = extractvalue { i64, i64 } %7, 1
  %16 = add i64 %15, %.030
  %17 = icmp ult i64 %16, 4
  br i1 %17, label %5, label %18

18:                                               ; preds = %9
  %19 = icmp eq i32 %2, -1
  br i1 %19, label %.loopexit, label %20

20:                                               ; preds = %18
  %21 = add nuw i32 %2, 1
  %22 = and i32 %21, %2
  %23 = icmp eq i32 %22, 0
  br i1 %23, label %24, label %26

24:                                               ; preds = %20
  %25 = and i32 %14, %2
  br label %.loopexit

26:                                               ; preds = %20
  %27 = urem i32 -1, %21
  %28 = sub nuw i32 -2, %27
  %29 = icmp ugt i32 %14, %28
  br i1 %29, label %.lr.ph, label %._crit_edge

.loopexit38:                                      ; preds = %37
  %30 = icmp ugt i32 %44, %28
  br i1 %30, label %.lr.ph, label %._crit_edge

.lr.ph:                                           ; preds = %26, %.loopexit38
  %.03246 = phi i32 [ %31, %.loopexit38 ], [ 0, %26 ]
  %31 = add nuw nsw i32 %.03246, 1
  %exitcond = icmp eq i32 %.03246, 50
  br i1 %exitcond, label %32, label %.preheader

32:                                               ; preds = %.lr.ph
  %33 = load ptr, ptr @random_ce_Random_BrokenRandomEngineError, align 8
  tail call void (ptr, ptr, ...) @zend_throw_error(ptr noundef %33, ptr noundef nonnull @.str, i32 noundef 50) #13
  br label %.loopexit

.preheader:                                       ; preds = %.lr.ph, %37
  %.131 = phi i64 [ %39, %37 ], [ 0, %.lr.ph ]
  %.2 = phi i32 [ %44, %37 ], [ 0, %.lr.ph ]
  %34 = load ptr, ptr %4, align 8
  %35 = tail call { i64, i64 } %34(ptr noundef %1) #13
  %36 = load ptr, ptr getelementptr inbounds (%struct._zend_executor_globals, ptr @executor_globals, i64 0, i32 50), align 8
  %.not37 = icmp eq ptr %36, null
  br i1 %.not37, label %37, label %.loopexit

37:                                               ; preds = %.preheader
  %38 = extractvalue { i64, i64 } %35, 1
  %39 = add i64 %38, %.131
  %40 = extractvalue { i64, i64 } %35, 0
  %41 = trunc i64 %40 to i32
  %.131.tr = trunc i64 %.131 to i32
  %42 = shl nuw nsw i32 %.131.tr, 3
  %43 = shl i32 %41, %42
  %44 = or i32 %43, %.2
  %45 = icmp ult i64 %39, 4
  br i1 %45, label %.preheader, label %.loopexit38

._crit_edge:                                      ; preds = %.loopexit38, %26
  %.1.lcssa = phi i32 [ %14, %26 ], [ %44, %.loopexit38 ]
  %46 = urem i32 %.1.lcssa, %21
  br label %.loopexit

.loopexit:                                        ; preds = %5, %.preheader, %18, %._crit_edge, %32, %24
  %.0 = phi i32 [ %25, %24 ], [ 0, %32 ], [ %46, %._crit_edge ], [ %14, %18 ], [ 0, %.preheader ], [ 0, %5 ]
  ret i32 %.0
}